target datalayout = "e-m:e-p270:32:32-p271:32:32-p272:64:64-i64:64-i128:128-f80:128-n8:16:32:64-S128"
target triple = "x86_64-pc-linux-gnu"

%struct.Scheduler = type { ptr, ptr, i32, ptr, i32, i32, %union.pthread_mutex_t, i32, i32, %union.pthread_mutex_t, %union.pthread_cond_t, ptr, i32, ptr, i32, ptr, i32, ptr, i32, ptr, i32, i32, i32, %union.pthread_mutex_t, i64 }
%union.pthread_cond_t = type { %struct.__pthread_cond_s }
%struct.__pthread_cond_s = type { %union.__atomic_wide_counter, %union.__atomic_wide_counter, [2 x i32], [2 x i32], i32, i32, [2 x i32] }
%union.__atomic_wide_counter = type { i64 }
%union.pthread_mutex_t = type { %struct.__pthread_mutex_s }
%struct.__pthread_mutex_s = type { i32, i32, i32, i32, i32, i16, i16, %struct.__pthread_internal_list }
%struct.__pthread_internal_list = type { ptr, ptr }
%struct.SchTask = type { ptr, %struct.SchedulerNode, ptr, ptr, i64, i32 }
%struct.SchedulerNode = type { i32, i32, i32 }
%struct.SchWaiter = type { %union.pthread_mutex_t, %union.pthread_cond_t, i32, i32, i32 }
%struct.SchFilterGraph = type { ptr, ptr, i32, i32, i32, ptr, i32, %struct.SchTask, ptr, %struct.SchWaiter, i32, i32 }

@.str = private unnamed_addr constant [30 x i8] c"Assertion %s failed at %s:%d\0A\00", align 1
@.str.2 = private unnamed_addr constant [23 x i8] c"fftools/ffmpeg_sched.c\00", align 1
@.str.28 = private unnamed_addr constant [25 x i8] c"fg_idx < sch->nb_filters\00", align 1
@.str.29 = private unnamed_addr constant [25 x i8] c"*in_idx <= fg->nb_inputs\00", align 1

; Function Attrs: nounwind uwtable
define internal i32 @waiter_wait(ptr noundef %0, ptr noundef %1) #0 {
  %3 = alloca i32, align 4
  %4 = alloca ptr, align 8
  %5 = alloca ptr, align 8
  %6 = alloca i32, align 4
  %7 = alloca i32, align 4
  %8 = alloca i32, align 4
  %9 = alloca i32, align 4
  %10 = alloca i32, align 4
  %11 = alloca i32, align 4
  store ptr %0, ptr %4, align 8, !tbaa !10
  store ptr %1, ptr %5, align 8, !tbaa !83
  call void @llvm.lifetime.start.p0(i64 4, ptr %6) #9
  %12 = load ptr, ptr %5, align 8, !tbaa !83
  %13 = getelementptr inbounds nuw %struct.SchWaiter, ptr %12, i32 0, i32 2
  %14 = load atomic i32, ptr %13 seq_cst, align 8
  store i32 %14, ptr %7, align 4
  %15 = load i32, ptr %7, align 4, !tbaa !12
  %16 = icmp ne i32 %15, 0
  br i1 %16, label %18, label %17

17:                                               ; preds = %2
  store i32 0, ptr %3, align 4
  store i32 1, ptr %8, align 4
  br label %52

18:                                               ; preds = %2
  %19 = load ptr, ptr %5, align 8, !tbaa !83
  %20 = getelementptr inbounds nuw %struct.SchWaiter, ptr %19, i32 0, i32 0
  %21 = call i32 @pthread_mutex_lock(ptr noundef %20) #9
  br label %22

22:                                               ; preds = %37, %18
  %23 = load ptr, ptr %5, align 8, !tbaa !83
  %24 = getelementptr inbounds nuw %struct.SchWaiter, ptr %23, i32 0, i32 2
  %25 = load atomic i32, ptr %24 seq_cst, align 8
  store i32 %25, ptr %9, align 4
  %26 = load i32, ptr %9, align 4, !tbaa !12
  %27 = icmp ne i32 %26, 0
  br i1 %27, label %28, label %35

28:                                               ; preds = %22
  %29 = load ptr, ptr %4, align 8, !tbaa !10
  %30 = getelementptr inbounds nuw %struct.Scheduler, ptr %29, i32 0, i32 22
  %31 = load atomic i32, ptr %30 seq_cst, align 8
  store i32 %31, ptr %10, align 4
  %32 = load i32, ptr %10, align 4, !tbaa !12
  %33 = icmp ne i32 %32, 0
  %34 = xor i1 %33, true
  br label %35

35:                                               ; preds = %28, %22
  %36 = phi i1 [ false, %22 ], [ %34, %28 ]
  br i1 %36, label %37, label %43

37:                                               ; preds = %35
  %38 = load ptr, ptr %5, align 8, !tbaa !83
  %39 = getelementptr inbounds nuw %struct.SchWaiter, ptr %38, i32 0, i32 1
  %40 = load ptr, ptr %5, align 8, !tbaa !83
  %41 = getelementptr inbounds nuw %struct.SchWaiter, ptr %40, i32 0, i32 0
  %42 = call i32 @pthread_cond_wait(ptr noundef %39, ptr noundef %41)
  br label %22, !llvm.loop !214

43:                                               ; preds = %35
  %44 = load ptr, ptr %4, align 8, !tbaa !10
  %45 = getelementptr inbounds nuw %struct.Scheduler, ptr %44, i32 0, i32 22
  %46 = load atomic i32, ptr %45 seq_cst, align 8
  store i32 %46, ptr %11, align 4
  %47 = load i32, ptr %11, align 4, !tbaa !12
  store i32 %47, ptr %6, align 4, !tbaa !12
  %48 = load ptr, ptr %5, align 8, !tbaa !83
  %49 = getelementptr inbounds nuw %struct.SchWaiter, ptr %48, i32 0, i32 0
  %50 = call i32 @pthread_mutex_unlock(ptr noundef %49) #9
  %51 = load i32, ptr %6, align 4, !tbaa !12
  store i32 %51, ptr %3, align 4
  store i32 1, ptr %8, align 4
  br label %52

52:                                               ; preds = %43, %17
  call void @llvm.lifetime.end.p0(i64 4, ptr %6) #9
  %53 = load i32, ptr %3, align 4
  ret i32 %53
}

; Function Attrs: nounwind uwtable
define i32 @sch_filter_receive(ptr noundef %0, i32 noundef %1, ptr noundef %2, ptr noundef %3) #0 {
  %5 = alloca i32, align 4
  %6 = alloca ptr, align 8
  %7 = alloca i32, align 4
  %8 = alloca ptr, align 8
  %9 = alloca ptr, align 8
  %10 = alloca ptr, align 8
  %11 = alloca i32, align 4
  %12 = alloca i32, align 4
  %13 = alloca i32, align 4
  %14 = alloca i32, align 4
  store ptr %0, ptr %6, align 8, !tbaa !10
  store i32 %1, ptr %7, align 4, !tbaa !12
  store ptr %2, ptr %8, align 8, !tbaa !237
  store ptr %3, ptr %9, align 8, !tbaa !232
  call void @llvm.lifetime.start.p0(i64 8, ptr %10) #9
  br label %15

15:                                               ; preds = %4
  %16 = load i32, ptr %7, align 4, !tbaa !12
  %17 = load ptr, ptr %6, align 8, !tbaa !10
  %18 = getelementptr inbounds nuw %struct.Scheduler, ptr %17, i32 0, i32 18
  %19 = load i32, ptr %18, align 8, !tbaa !76
  %20 = icmp ult i32 %16, %19
  br i1 %20, label %22, label %21

21:                                               ; preds = %15
  call void (ptr, i32, ptr, ...) @av_log(ptr noundef null, i32 noundef 0, ptr noundef @.str, ptr noundef @.str.28, ptr noundef @.str.2, i32 noundef 2400)
  call void @abort() #10
  unreachable

22:                                               ; preds = %15
  br label %23

23:                                               ; preds = %22
  br label %24

24:                                               ; preds = %23
  %25 = load ptr, ptr %6, align 8, !tbaa !10
  %26 = getelementptr inbounds nuw %struct.Scheduler, ptr %25, i32 0, i32 17
  %27 = load ptr, ptr %26, align 8, !tbaa !77
  %28 = load i32, ptr %7, align 4, !tbaa !12
  %29 = zext i32 %28 to i64
  %30 = getelementptr inbounds nuw %struct.SchFilterGraph, ptr %27, i64 %29
  store ptr %30, ptr %10, align 8, !tbaa !78
  br label %31

31:                                               ; preds = %24
  %32 = load ptr, ptr %8, align 8, !tbaa !237
  %33 = load i32, ptr %32, align 4, !tbaa !12
  %34 = load ptr, ptr %10, align 8, !tbaa !78
  %35 = getelementptr inbounds nuw %struct.SchFilterGraph, ptr %34, i32 0, i32 2
  %36 = load i32, ptr %35, align 8, !tbaa !127
  %37 = icmp ule i32 %33, %36
  br i1 %37, label %39, label %38

38:                                               ; preds = %31
  call void (ptr, i32, ptr, ...) @av_log(ptr noundef null, i32 noundef 0, ptr noundef @.str, ptr noundef @.str.29, ptr noundef @.str.2, i32 noundef 2403)
  call void @abort() #10
  unreachable

39:                                               ; preds = %31
  br label %40

40:                                               ; preds = %39
  br label %41

41:                                               ; preds = %40
  %42 = load ptr, ptr %8, align 8, !tbaa !237
  %43 = load i32, ptr %42, align 4, !tbaa !12
  %44 = load ptr, ptr %10, align 8, !tbaa !78
  %45 = getelementptr inbounds nuw %struct.SchFilterGraph, ptr %44, i32 0, i32 10
  %46 = load i32, ptr %45, align 8, !tbaa !238
  %47 = icmp ne i32 %43, %46
  br i1 %47, label %48, label %60

48:                                               ; preds = %41
  %49 = load ptr, ptr %6, align 8, !tbaa !10
  %50 = getelementptr inbounds nuw %struct.Scheduler, ptr %49, i32 0, i32 23
  %51 = call i32 @pthread_mutex_lock(ptr noundef %50) #9
  %52 = load ptr, ptr %8, align 8, !tbaa !237
  %53 = load i32, ptr %52, align 4, !tbaa !12
  %54 = load ptr, ptr %10, align 8, !tbaa !78
  %55 = getelementptr inbounds nuw %struct.SchFilterGraph, ptr %54, i32 0, i32 10
  store i32 %53, ptr %55, align 8, !tbaa !238
  %56 = load ptr, ptr %6, align 8, !tbaa !10
  call void @schedule_update_locked(ptr noundef %56)
  %57 = load ptr, ptr %6, align 8, !tbaa !10
  %58 = getelementptr inbounds nuw %struct.Scheduler, ptr %57, i32 0, i32 23
  %59 = call i32 @pthread_mutex_unlock(ptr noundef %58) #9
  br label %60

60:                                               ; preds = %48, %41
  %61 = load ptr, ptr %8, align 8, !tbaa !237
  %62 = load i32, ptr %61, align 4, !tbaa !12
  %63 = load ptr, ptr %10, align 8, !tbaa !78
  %64 = getelementptr inbounds nuw %struct.SchFilterGraph, ptr %63, i32 0, i32 2
  %65 = load i32, ptr %64, align 8, !tbaa !127
  %66 = icmp eq i32 %62, %65
  br i1 %66, label %67, label %75

67:                                               ; preds = %60
  call void @llvm.lifetime.start.p0(i64 4, ptr %11) #9
  %68 = load ptr, ptr %6, align 8, !tbaa !10
  %69 = load ptr, ptr %10, align 8, !tbaa !78
  %70 = getelementptr inbounds nuw %struct.SchFilterGraph, ptr %69, i32 0, i32 9
  %71 = call i32 @waiter_wait(ptr noundef %68, ptr noundef %70)
  store i32 %71, ptr %11, align 4, !tbaa !12
  %72 = load i32, ptr %11, align 4, !tbaa !12
  %73 = icmp ne i32 %72, 0
  %74 = select i1 %73, i32 -541478725, i32 -11
  store i32 %74, ptr %5, align 4
  store i32 1, ptr %12, align 4
  call void @llvm.lifetime.end.p0(i64 4, ptr %11) #9
  br label %97

75:                                               ; preds = %60
  br label %76

76:                                               ; preds = %96, %75
  br label %77

77:                                               ; preds = %76
  call void @llvm.lifetime.start.p0(i64 4, ptr %13) #9
  call void @llvm.lifetime.start.p0(i64 4, ptr %14) #9
  %78 = load ptr, ptr %10, align 8, !tbaa !78
  %79 = getelementptr inbounds nuw %struct.SchFilterGraph, ptr %78, i32 0, i32 8
  %80 = load ptr, ptr %79, align 8, !tbaa !239
  %81 = load ptr, ptr %9, align 8, !tbaa !232
  %82 = call i32 @tq_receive(ptr noundef %80, ptr noundef %14, ptr noundef %81)
  store i32 %82, ptr %13, align 4, !tbaa !12
  %83 = load i32, ptr %14, align 4, !tbaa !12
  %84 = icmp slt i32 %83, 0
  br i1 %84, label %85, label %86

85:                                               ; preds = %77
  store i32 -541478725, ptr %5, align 4
  store i32 1, ptr %12, align 4
  br label %94

86:                                               ; preds = %77
  %87 = load i32, ptr %13, align 4, !tbaa !12
  %88 = icmp sge i32 %87, 0
  br i1 %88, label %89, label %92

89:                                               ; preds = %86
  %90 = load i32, ptr %14, align 4, !tbaa !12
  %91 = load ptr, ptr %8, align 8, !tbaa !237
  store i32 %90, ptr %91, align 4, !tbaa !12
  store i32 0, ptr %5, align 4
  store i32 1, ptr %12, align 4
  br label %94

92:                                               ; preds = %86
  br label %93

93:                                               ; preds = %92
  store i32 0, ptr %12, align 4
  br label %94

94:                                               ; preds = %93, %89, %85
  call void @llvm.lifetime.end.p0(i64 4, ptr %14) #9
  call void @llvm.lifetime.end.p0(i64 4, ptr %13) #9
  %95 = load i32, ptr %12, align 4
  switch i32 %95, label %97 [
    i32 0, label %96
  ]

96:                                               ; preds = %94
  br label %76

97:                                               ; preds = %94, %67
  call void @llvm.lifetime.end.p0(i64 8, ptr %10) #9
  %98 = load i32, ptr %5, align 4
  ret i32 %98
}