; Function Attrs: nounwind uwtable
define range(i32 -541478725, 1) i32 @sch_filter_receive(ptr noundef %0, i32 noundef %1, ptr noundef captures(none) %2, ptr noundef %3) local_unnamed_addr #0 {
  %5 = alloca i32, align 4
  %6 = getelementptr inbounds nuw i8, ptr %0, i64 232
  %7 = load i32, ptr %6, align 8, !tbaa !62
  %8 = icmp ult i32 %1, %7
  br i1 %8, label %10, label %9

9:                                                ; preds = %4
  tail call void (ptr, i32, ptr, ...) @av_log(ptr noundef null, i32 noundef 0, ptr noundef nonnull @.str, ptr noundef nonnull @.str.28, ptr noundef nonnull @.str.2, i32 noundef 2400) #9
  tail call void @abort() #10
  unreachable

10:                                               ; preds = %4
  %11 = getelementptr inbounds nuw i8, ptr %0, i64 224
  %12 = load ptr, ptr %11, align 8, !tbaa !65
  %13 = zext i32 %1 to i64
  %14 = getelementptr inbounds nuw %struct.SchFilterGraph, ptr %12, i64 %13
  %15 = load i32, ptr %2, align 4, !tbaa !68
  %16 = getelementptr inbounds nuw i8, ptr %14, i64 16
  %17 = load i32, ptr %16, align 8, !tbaa !110
  %.not = icmp ugt i32 %15, %17
  br i1 %.not, label %18, label %19

18:                                               ; preds = %10
  tail call void (ptr, i32, ptr, ...) @av_log(ptr noundef null, i32 noundef 0, ptr noundef nonnull @.str, ptr noundef nonnull @.str.29, ptr noundef nonnull @.str.2, i32 noundef 2403) #9
  tail call void @abort() #10
  unreachable

19:                                               ; preds = %10
  %20 = getelementptr inbounds nuw i8, ptr %14, i64 216
  %21 = load i32, ptr %20, align 8, !tbaa !177
  %.not27 = icmp eq i32 %15, %21
  br i1 %.not27, label %27, label %22

22:                                               ; preds = %19
  %23 = getelementptr inbounds nuw i8, ptr %0, i64 264
  %24 = tail call i32 @pthread_mutex_lock(ptr noundef nonnull %23) #9
  %25 = load i32, ptr %2, align 4, !tbaa !68
  store i32 %25, ptr %20, align 8, !tbaa !177
  tail call fastcc void @schedule_update_locked(ptr noundef nonnull %0)
  %26 = tail call i32 @pthread_mutex_unlock(ptr noundef nonnull %23) #9
  %.pre = load i32, ptr %2, align 4, !tbaa !68
  %.pre36 = load i32, ptr %16, align 8, !tbaa !110
  br label %27

27:                                               ; preds = %22, %19
  %28 = phi i32 [ %.pre36, %22 ], [ %17, %19 ]
  %29 = phi i32 [ %.pre, %22 ], [ %15, %19 ]
  %30 = icmp eq i32 %29, %28
  br i1 %30, label %37, label %.preheader

.preheader:                                       ; preds = %27
  %31 = getelementptr inbounds nuw i8, ptr %14, i64 104
  call void @llvm.lifetime.start.p0(i64 4, ptr nonnull %5) #9
  %32 = load ptr, ptr %31, align 8, !tbaa !214
  %33 = call i32 @tq_receive(ptr noundef %32, ptr noundef nonnull %5, ptr noundef %3) #9
  %34 = load i32, ptr %5, align 4, !tbaa !68
  %35 = icmp slt i32 %34, 0
  br i1 %35, label %.thread, label %.lr.ph.preheader

.lr.ph.preheader:                                 ; preds = %.preheader
  %36 = icmp sgt i32 %33, -1
  br i1 %36, label %.lr.ph._crit_edge, label %.lr.ph39

37:                                               ; preds = %27
  %38 = getelementptr inbounds nuw i8, ptr %14, i64 112
  %39 = getelementptr inbounds nuw i8, ptr %14, i64 200
  %40 = load atomic i32, ptr %39 seq_cst, align 8
  %.not.i = icmp eq i32 %40, 0
  br i1 %.not.i, label %waiter_wait.exit.thread, label %41

41:                                               ; preds = %37
  %42 = tail call i32 @pthread_mutex_lock(ptr noundef nonnull %38) #9
  %43 = getelementptr inbounds nuw i8, ptr %0, i64 256
  %44 = load atomic i32, ptr %39 seq_cst, align 8
  %.not1315.i = icmp eq i32 %44, 0
  br i1 %.not1315.i, label %waiter_wait.exit, label %.lr.ph.i

.lr.ph.i:                                         ; preds = %41
  %45 = getelementptr inbounds nuw i8, ptr %14, i64 152
  br label %46

46:                                               ; preds = %48, %.lr.ph.i
  %47 = load atomic i32, ptr %43 seq_cst, align 8
  %.not14.i = icmp eq i32 %47, 0
  br i1 %.not14.i, label %48, label %waiter_wait.exit

48:                                               ; preds = %46
  %49 = tail call i32 @pthread_cond_wait(ptr noundef nonnull %45, ptr noundef nonnull %38) #9
  %50 = load atomic i32, ptr %39 seq_cst, align 8
  %.not13.i = icmp eq i32 %50, 0
  br i1 %.not13.i, label %waiter_wait.exit, label %46, !llvm.loop !191

waiter_wait.exit:                                 ; preds = %46, %48, %41
  %51 = load atomic i32, ptr %43 seq_cst, align 8
  %52 = tail call i32 @pthread_mutex_unlock(ptr noundef nonnull %38) #9
  %.fr = freeze i32 %51
  %.not28 = icmp eq i32 %.fr, 0
  br i1 %.not28, label %waiter_wait.exit.thread, label %58

waiter_wait.exit.thread:                          ; preds = %37, %waiter_wait.exit
  br label %58

.lr.ph:                                           ; preds = %.lr.ph39
  %53 = icmp sgt i32 %55, -1
  br i1 %53, label %.lr.ph._crit_edge, label %.lr.ph39

.lr.ph._crit_edge:                                ; preds = %.lr.ph, %.lr.ph.preheader
  %.lcssa = phi i32 [ %34, %.lr.ph.preheader ], [ %56, %.lr.ph ]
  store i32 %.lcssa, ptr %2, align 4, !tbaa !68
  br label %.thread

.thread:                                          ; preds = %.lr.ph39, %.preheader, %.lr.ph._crit_edge
  %.2.ph = phi i32 [ 0, %.lr.ph._crit_edge ], [ -541478725, %.preheader ], [ -541478725, %.lr.ph39 ]
  call void @llvm.lifetime.end.p0(i64 4, ptr nonnull %5) #9
  br label %58

.lr.ph39:                                         ; preds = %.lr.ph.preheader, %.lr.ph
  call void @llvm.lifetime.end.p0(i64 4, ptr nonnull %5) #9
  call void @llvm.lifetime.start.p0(i64 4, ptr nonnull %5) #9
  %54 = load ptr, ptr %31, align 8, !tbaa !214
  %55 = call i32 @tq_receive(ptr noundef %54, ptr noundef nonnull %5, ptr noundef %3) #9
  %56 = load i32, ptr %5, align 4, !tbaa !68
  %57 = icmp slt i32 %56, 0
  br i1 %57, label %.thread, label %.lr.ph

58:                                               ; preds = %.thread, %waiter_wait.exit.thread, %waiter_wait.exit
  %.0 = phi i32 [ -11, %waiter_wait.exit.thread ], [ -541478725, %waiter_wait.exit ], [ %.2.ph, %.thread ]
  ret i32 %.0
}